; Function Attrs: nounwind uwtable
define dso_local i64 @hashfloat8extended(ptr noundef readonly captures(none) %0) local_unnamed_addr #0 {
  %2 = alloca double, align 8
  call void @llvm.lifetime.start.p0(i64 8, ptr nonnull %2) #6
  %3 = getelementptr inbounds nuw i8, ptr %0, i64 32
  %4 = load double, ptr %3, align 8
  store double %4, ptr %2, align 8
  %5 = getelementptr inbounds nuw i8, ptr %0, i64 48
  %6 = load i64, ptr %5, align 8
  %7 = fcmp oeq double %4, 0.000000e+00
  br i1 %7, label %13, label %8

8:                                                ; preds = %1
  %9 = fcmp uno double %4, 0.000000e+00
  br i1 %9, label %10, label %11

10:                                               ; preds = %8
  store double 0x7FF8000000000000, ptr %2, align 8
  br label %11

11:                                               ; preds = %10, %8
  %12 = call i64 @hash_bytes_extended(ptr noundef nonnull %2, i32 noundef 8, i64 noundef %6) #6
  br label %13

13:                                               ; preds = %1, %11
  %.0 = phi i64 [ %12, %11 ], [ %6, %1 ]
  call void @llvm.lifetime.end.p0(i64 8, ptr nonnull %2) #6
  ret i64 %.0
}